target datalayout = "e-m:e-p270:32:32-p271:32:32-p272:64:64-i64:64-i128:128-f80:128-n8:16:32:64-S128"
target triple = "x86_64-pc-linux-gnu"

%class.arith_util = type { ptr, ptr }
%class.obj_ref = type { ptr, ptr }
%class.ref_vector.52 = type { %class.ref_vector_core.53 }
%class.ref_vector_core.53 = type { %class.ref_manager_wrapper.54, %class.ptr_vector.55 }
%class.ref_manager_wrapper.54 = type { ptr }
%class.ptr_vector.55 = type { %class.vector.56 }
%class.vector.56 = type { ptr }
%class.rewriter_core = type { ptr, ptr, i8, i8, %class.ptr_vector.76, ptr, %class.svector.78, %class.ref_vector, %class.ptr_vector.76, ptr, %class.ref_vector.52, %class.obj_hashtable.80, ptr, i32, %class.svector.86 }
%class.svector.78 = type { %class.vector.79 }
%class.vector.79 = type { ptr }
%class.ptr_vector.76 = type { %class.vector.77 }
%class.vector.77 = type { ptr }
%class.svector.86 = type { %class.vector.87 }
%class.vector.87 = type { ptr }
%class.var_shifter = type <{ %class.var_shifter_core, i32, i32, i32, [4 x i8] }>
%class.var_shifter_core = type { %class.rewriter_core }
%class.inv_var_shifter = type <{ %class.var_shifter_core, i32, [4 x i8] }>
%class.ptr_vector.126 = type { %class.vector.127 }
%class.vector.127 = type { ptr }
%class.region = type { ptr, ptr, ptr, ptr, ptr }
%class.ptr_vector.50 = type { %class.vector.51 }
%class.vector.51 = type { ptr }
%class.ptr_vector.6 = type { %class.vector.7 }
%class.vector.7 = type { ptr }
%class.svector.8 = type { %class.vector.9 }
%class.vector.9 = type { ptr }
%class.obj_ref.88 = type { ptr, ptr }
%class.obj_map.20 = type { %class.core_hashtable.21 }
%class.core_hashtable.21 = type <{ ptr, i32, i32, i32, [4 x i8] }>
%class.obj_hashtable.80 = type { %class.core_hashtable.base.84, [4 x i8] }
%class.core_hashtable.base.84 = type <{ ptr, i32, i32, i32 }>
%class.ref_vector = type { %class.ref_vector_core }
%class.ref_vector_core = type { %class.ref_manager_wrapper, %class.ptr_vector.6 }
%class.ref_manager_wrapper = type { ptr }
%"class.smt::quantifier_manager" = type <{ ptr, i32, i8, [3 x i8] }>
%"struct.smt::quantifier_manager::imp" = type <{ ptr, ptr, ptr, %"class.smt::qi_queue", %class.obj_map.329, %"class.q::quantifier_stat_gen", %class.ptr_vector.50, %class.scoped_ptr.336, i32, [4 x i8] }>
%"class.smt::qi_queue" = type { ptr, ptr, ptr, ptr, %"struct.smt::qi_queue_stats", %"class.smt::checker", %class.obj_ref, %class.obj_ref, %class.cost_parser, %class.cost_evaluator, %class.cached_var_subst, %class.svector.323, double, %class.svector.325, %class.svector.325, %class.ref_vector, %class.svector.8, %class.svector.327 }
%"struct.smt::qi_queue_stats" = type { i32, i32 }
%"class.smt::checker" = type { ptr, ptr, [2 x %class.obj_map.295], %class.obj_map.300, i32, ptr }
%class.obj_map.295 = type { %class.core_hashtable.296 }
%class.core_hashtable.296 = type <{ ptr, i32, i32, i32, [4 x i8] }>
%class.obj_map.300 = type { %class.core_hashtable.301 }
%class.core_hashtable.301 = type <{ ptr, i32, i32, i32, [4 x i8] }>
%class.cost_parser = type { %class.simple_parser, %class.arith_util, %class.ref_vector.313 }
%class.simple_parser = type { ptr, ptr, %class.map.305, %class.map.309, %class.ref_vector }
%class.map.305 = type { %class.table2map.306 }
%class.table2map.306 = type { %class.core_hashtable.307 }
%class.core_hashtable.307 = type <{ ptr, i32, i32, i32, [4 x i8] }>
%class.map.309 = type { %class.table2map.310 }
%class.table2map.310 = type { %class.core_hashtable.311 }
%class.core_hashtable.311 = type <{ ptr, i32, i32, i32, [4 x i8] }>
%class.ref_vector.313 = type { %class.ref_vector_core.314 }
%class.ref_vector_core.314 = type { %class.ref_manager_wrapper.315, %class.ptr_vector.126 }
%class.ref_manager_wrapper.315 = type { ptr }
%class.cost_evaluator = type { ptr, %class.arith_util, i32, ptr }
%class.cached_var_subst = type { ptr, %class.var_subst, %class.ref_vector, %class.map.317, %class.region, %class.ptr_vector.321, ptr }
%class.var_subst = type { %class.beta_reducer, i8, [7 x i8] }
%class.beta_reducer = type <{ %class.rewriter_tpl.316, [8 x i8] }>
%class.rewriter_tpl.316 = type { %class.rewriter_core, ptr, i32, %class.ptr_vector.6, %class.var_shifter, %class.inv_var_shifter, %class.obj_ref, %class.obj_ref.88, %class.obj_ref.88, %class.svector.8 }
%class.map.317 = type { %class.table2map.318 }
%class.table2map.318 = type { %class.core_hashtable.319 }
%class.core_hashtable.319 = type <{ ptr, i32, i32, i32, [4 x i8] }>
%class.ptr_vector.321 = type { %class.vector.322 }
%class.vector.322 = type { ptr }
%class.svector.323 = type { %class.vector.324 }
%class.vector.324 = type { ptr }
%class.svector.325 = type { %class.vector.326 }
%class.vector.326 = type { ptr }
%class.svector.327 = type { %class.vector.328 }
%class.vector.328 = type { ptr }
%class.obj_map.329 = type { %class.core_hashtable.330 }
%class.core_hashtable.330 = type <{ ptr, i32, i32, i32, [4 x i8] }>
%"class.q::quantifier_stat_gen" = type <{ ptr, ptr, %class.obj_map.20, %class.svector.334, %class.approx_nat, [4 x i8] }>
%class.svector.334 = type { %class.vector.335 }
%class.vector.335 = type { ptr }
%class.approx_nat = type { i32 }
%class.scoped_ptr.336 = type { ptr }
%"class.smt::default_qm_plugin" = type <{ %"class.smt::quantifier_manager_plugin", ptr, ptr, ptr, %class.scoped_ptr.339, %class.scoped_ptr.339, %class.scoped_ptr.340, %class.scoped_ptr.341, i32, i32, i8, [7 x i8] }>
%"class.smt::quantifier_manager_plugin" = type { ptr }
%class.scoped_ptr.339 = type { ptr }
%class.scoped_ptr.340 = type { ptr }
%class.scoped_ptr.341 = type { ptr }

; Function Attrs: mustprogress uwtable
define linkonce_odr hidden void @_Z7deallocIN3smt3mamEEvPT_(ptr noundef %0) #6 comdat {
  %2 = alloca ptr, align 8
  store ptr %0, ptr %2, align 8, !tbaa !1028
  %3 = load ptr, ptr %2, align 8, !tbaa !1028
  %4 = icmp eq ptr %3, null
  br i1 %4, label %5, label %6

5:                                                ; preds = %1
  br label %12

6:                                                ; preds = %1
  %7 = load ptr, ptr %2, align 8, !tbaa !1028
  %8 = load ptr, ptr %7, align 8, !tbaa !71
  %9 = getelementptr inbounds ptr, ptr %8, i64 0
  %10 = load ptr, ptr %9, align 8
  call void %10(ptr noundef nonnull align 8 dereferenceable(16) %7) #3
  %11 = load ptr, ptr %2, align 8, !tbaa !1028
  call void @_ZN6memory10deallocateEPv(ptr noundef %11)
  br label %12

12:                                               ; preds = %6, %5
  ret void
}

; Function Attrs: noinline noreturn nounwind uwtable
define linkonce_odr hidden void @__clang_call_terminate(ptr noundef %0) #9 comdat {
  %2 = call ptr @__cxa_begin_catch(ptr %0) #3
  call void @_ZSt9terminatev() #21
  unreachable
}

; Function Attrs: mustprogress uwtable
define linkonce_odr hidden void @_Z7deallocIN3smt12model_finderEEvPT_(ptr noundef %0) #6 comdat {
  %2 = alloca ptr, align 8
  store ptr %0, ptr %2, align 8, !tbaa !1032
  %3 = load ptr, ptr %2, align 8, !tbaa !1032
  %4 = icmp eq ptr %3, null
  br i1 %4, label %5, label %6

5:                                                ; preds = %1
  br label %12

6:                                                ; preds = %1
  %7 = load ptr, ptr %2, align 8, !tbaa !1032
  %8 = load ptr, ptr %7, align 8, !tbaa !71
  %9 = getelementptr inbounds ptr, ptr %8, i64 0
  %10 = load ptr, ptr %9, align 8
  call void %10(ptr noundef nonnull align 8 dereferenceable(128) %7) #3
  %11 = load ptr, ptr %2, align 8, !tbaa !1032
  call void @_ZN6memory10deallocateEPv(ptr noundef %11)
  br label %12

12:                                               ; preds = %6, %5
  ret void
}

; Function Attrs: mustprogress nounwind uwtable
define linkonce_odr hidden void @_ZN3smt25quantifier_manager_pluginD2Ev(ptr noundef nonnull align 8 dereferenceable(8) %0) unnamed_addr #4 comdat align 2 {
  %2 = alloca ptr, align 8
  store ptr %0, ptr %2, align 8, !tbaa !99
  ret void
}

; Function Attrs: mustprogress nounwind uwtable
define linkonce_odr hidden void @_ZN10scoped_ptrIN3smt3mamEED2Ev(ptr noundef nonnull align 8 dereferenceable(8) %0) unnamed_addr #4 comdat align 2 personality ptr @__gxx_personality_v0 {
  %2 = alloca ptr, align 8
  store ptr %0, ptr %2, align 8, !tbaa !1026
  %3 = load ptr, ptr %2, align 8
  %4 = getelementptr inbounds nuw %class.scoped_ptr.339, ptr %3, i32 0, i32 0
  %5 = load ptr, ptr %4, align 8, !tbaa !1029
  invoke void @_Z7deallocIN3smt3mamEEvPT_(ptr noundef %5)
          to label %6 unwind label %7

6:                                                ; preds = %1
  ret void

7:                                                ; preds = %1
  %8 = landingpad { ptr, i32 }
          catch ptr null
  %9 = extractvalue { ptr, i32 } %8, 0
  call void @__clang_call_terminate(ptr %9) #21
  unreachable
}

; Function Attrs: mustprogress nounwind uwtable
define linkonce_odr hidden void @_ZN10scoped_ptrIN3smt12model_finderEED2Ev(ptr noundef nonnull align 8 dereferenceable(8) %0) unnamed_addr #4 comdat align 2 personality ptr @__gxx_personality_v0 {
  %2 = alloca ptr, align 8
  store ptr %0, ptr %2, align 8, !tbaa !1030
  %3 = load ptr, ptr %2, align 8
  %4 = getelementptr inbounds nuw %class.scoped_ptr.340, ptr %3, i32 0, i32 0
  %5 = load ptr, ptr %4, align 8, !tbaa !1033
  invoke void @_Z7deallocIN3smt12model_finderEEvPT_(ptr noundef %5)
          to label %6 unwind label %7

6:                                                ; preds = %1
  ret void

7:                                                ; preds = %1
  %8 = landingpad { ptr, i32 }
          catch ptr null
  %9 = extractvalue { ptr, i32 } %8, 0
  call void @__clang_call_terminate(ptr %9) #21
  unreachable
}

; Function Attrs: mustprogress nounwind uwtable
define linkonce_odr hidden void @_ZN10scoped_ptrIN3smt13model_checkerEEC2EPS1_(ptr noundef nonnull align 8 dereferenceable(8) %0, ptr noundef %1) unnamed_addr #4 comdat align 2 {
  %3 = alloca ptr, align 8
  %4 = alloca ptr, align 8
  store ptr %0, ptr %3, align 8, !tbaa !1034
  store ptr %1, ptr %4, align 8, !tbaa !1036
  %5 = load ptr, ptr %3, align 8
  %6 = getelementptr inbounds nuw %class.scoped_ptr.341, ptr %5, i32 0, i32 0
  %7 = load ptr, ptr %4, align 8, !tbaa !1036
  store ptr %7, ptr %6, align 8, !tbaa !1037
  ret void
}

; Function Attrs: mustprogress nounwind uwtable
define linkonce_odr hidden void @_ZN10scoped_ptrIN3smt12model_finderEEC2EPS1_(ptr noundef nonnull align 8 dereferenceable(8) %0, ptr noundef %1) unnamed_addr #4 comdat align 2 {
  %3 = alloca ptr, align 8
  %4 = alloca ptr, align 8
  store ptr %0, ptr %3, align 8, !tbaa !1030
  store ptr %1, ptr %4, align 8, !tbaa !1032
  %5 = load ptr, ptr %3, align 8
  %6 = getelementptr inbounds nuw %class.scoped_ptr.340, ptr %5, i32 0, i32 0
  %7 = load ptr, ptr %4, align 8, !tbaa !1032
  store ptr %7, ptr %6, align 8, !tbaa !1033
  ret void
}

; Function Attrs: mustprogress nounwind uwtable
define linkonce_odr hidden void @_ZN10scoped_ptrIN3smt3mamEEC2EPS1_(ptr noundef nonnull align 8 dereferenceable(8) %0, ptr noundef %1) unnamed_addr #4 comdat align 2 {
  %3 = alloca ptr, align 8
  %4 = alloca ptr, align 8
  store ptr %0, ptr %3, align 8, !tbaa !1026
  store ptr %1, ptr %4, align 8, !tbaa !1028
  %5 = load ptr, ptr %3, align 8
  %6 = getelementptr inbounds nuw %class.scoped_ptr.339, ptr %5, i32 0, i32 0
  %7 = load ptr, ptr %4, align 8, !tbaa !1028
  store ptr %7, ptr %6, align 8, !tbaa !1029
  ret void
}

; Function Attrs: inlinehint mustprogress nounwind uwtable
define linkonce_odr hidden void @_ZN3smt25quantifier_manager_pluginC2Ev(ptr noundef nonnull align 8 dereferenceable(8) %0) unnamed_addr #10 comdat align 2 {
  %2 = alloca ptr, align 8
  store ptr %0, ptr %2, align 8, !tbaa !99
  %3 = load ptr, ptr %2, align 8
  store ptr getelementptr inbounds inrange(-16, 168) ({ [23 x ptr] }, ptr @_ZTVN3smt25quantifier_manager_pluginE, i32 0, i32 0, i32 2), ptr %3, align 8, !tbaa !71
  ret void
}

; Function Attrs: mustprogress uwtable
define linkonce_odr hidden void @_ZN3smt17default_qm_pluginC2Ev(ptr noundef nonnull align 8 dereferenceable(73) %0) unnamed_addr #6 comdat align 2 personality ptr @__gxx_personality_v0 {
  %2 = alloca ptr, align 8
  %3 = alloca ptr, align 8
  %4 = alloca i32, align 4
  store ptr %0, ptr %2, align 8, !tbaa !247
  %5 = load ptr, ptr %2, align 8
  call void @_ZN3smt25quantifier_manager_pluginC2Ev(ptr noundef nonnull align 8 dereferenceable(8) %5) #3
  store ptr getelementptr inbounds inrange(-16, 168) ({ [23 x ptr] }, ptr @_ZTVN3smt17default_qm_pluginE, i32 0, i32 0, i32 2), ptr %5, align 8, !tbaa !71
  %6 = getelementptr inbounds nuw %"class.smt::default_qm_plugin", ptr %5, i32 0, i32 1
  store ptr null, ptr %6, align 8, !tbaa !249
  %7 = getelementptr inbounds nuw %"class.smt::default_qm_plugin", ptr %5, i32 0, i32 3
  store ptr null, ptr %7, align 8, !tbaa !258
  %8 = getelementptr inbounds nuw %"class.smt::default_qm_plugin", ptr %5, i32 0, i32 4
  invoke void @_ZN10scoped_ptrIN3smt3mamEEC2EPS1_(ptr noundef nonnull align 8 dereferenceable(8) %8, ptr noundef null)
          to label %9 unwind label %19

9:                                                ; preds = %1
  %10 = getelementptr inbounds nuw %"class.smt::default_qm_plugin", ptr %5, i32 0, i32 5
  invoke void @_ZN10scoped_ptrIN3smt3mamEEC2EPS1_(ptr noundef nonnull align 8 dereferenceable(8) %10, ptr noundef null)
          to label %11 unwind label %23

11:                                               ; preds = %9
  %12 = getelementptr inbounds nuw %"class.smt::default_qm_plugin", ptr %5, i32 0, i32 6
  invoke void @_ZN10scoped_ptrIN3smt12model_finderEEC2EPS1_(ptr noundef nonnull align 8 dereferenceable(8) %12, ptr noundef null)
          to label %13 unwind label %27

13:                                               ; preds = %11
  %14 = getelementptr inbounds nuw %"class.smt::default_qm_plugin", ptr %5, i32 0, i32 7
  invoke void @_ZN10scoped_ptrIN3smt13model_checkerEEC2EPS1_(ptr noundef nonnull align 8 dereferenceable(8) %14, ptr noundef null)
          to label %15 unwind label %31

15:                                               ; preds = %13
  %16 = getelementptr inbounds nuw %"class.smt::default_qm_plugin", ptr %5, i32 0, i32 8
  store i32 0, ptr %16, align 8, !tbaa !259
  %17 = getelementptr inbounds nuw %"class.smt::default_qm_plugin", ptr %5, i32 0, i32 9
  store i32 0, ptr %17, align 4, !tbaa !260
  %18 = getelementptr inbounds nuw %"class.smt::default_qm_plugin", ptr %5, i32 0, i32 10
  store i8 0, ptr %18, align 8, !tbaa !261
  ret void

19:                                               ; preds = %1
  %20 = landingpad { ptr, i32 }
          cleanup
  %21 = extractvalue { ptr, i32 } %20, 0
  store ptr %21, ptr %3, align 8
  %22 = extractvalue { ptr, i32 } %20, 1
  store i32 %22, ptr %4, align 4
  br label %37

23:                                               ; preds = %9
  %24 = landingpad { ptr, i32 }
          cleanup
  %25 = extractvalue { ptr, i32 } %24, 0
  store ptr %25, ptr %3, align 8
  %26 = extractvalue { ptr, i32 } %24, 1
  store i32 %26, ptr %4, align 4
  br label %36

27:                                               ; preds = %11
  %28 = landingpad { ptr, i32 }
          cleanup
  %29 = extractvalue { ptr, i32 } %28, 0
  store ptr %29, ptr %3, align 8
  %30 = extractvalue { ptr, i32 } %28, 1
  store i32 %30, ptr %4, align 4
  br label %35

31:                                               ; preds = %13
  %32 = landingpad { ptr, i32 }
          cleanup
  %33 = extractvalue { ptr, i32 } %32, 0
  store ptr %33, ptr %3, align 8
  %34 = extractvalue { ptr, i32 } %32, 1
  store i32 %34, ptr %4, align 4
  call void @_ZN10scoped_ptrIN3smt12model_finderEED2Ev(ptr noundef nonnull align 8 dereferenceable(8) %12) #3
  br label %35

35:                                               ; preds = %31, %27
  call void @_ZN10scoped_ptrIN3smt3mamEED2Ev(ptr noundef nonnull align 8 dereferenceable(8) %10) #3
  br label %36

36:                                               ; preds = %35, %23
  call void @_ZN10scoped_ptrIN3smt3mamEED2Ev(ptr noundef nonnull align 8 dereferenceable(8) %8) #3
  br label %37

37:                                               ; preds = %36, %19
  call void @_ZN3smt25quantifier_manager_pluginD2Ev(ptr noundef nonnull align 8 dereferenceable(8) %5) #3
  br label %38

38:                                               ; preds = %37
  %39 = load ptr, ptr %3, align 8
  %40 = load i32, ptr %4, align 4
  %41 = insertvalue { ptr, i32 } poison, ptr %39, 0
  %42 = insertvalue { ptr, i32 } %41, i32 %40, 1
  resume { ptr, i32 } %42
}

; Function Attrs: mustprogress nounwind uwtable
define linkonce_odr hidden noundef ptr @_ZNK10scoped_ptrIN3smt25quantifier_manager_pluginEEptEv(ptr noundef nonnull align 8 dereferenceable(8) %0) #4 comdat align 2 {
  %2 = alloca ptr, align 8
  store ptr %0, ptr %2, align 8, !tbaa !206
  %3 = load ptr, ptr %2, align 8
  %4 = getelementptr inbounds nuw %class.scoped_ptr.336, ptr %3, i32 0, i32 0
  %5 = load ptr, ptr %4, align 8, !tbaa !208
  ret ptr %5
}

; Function Attrs: mustprogress uwtable
define hidden noundef ptr @_ZN3smt17mk_default_pluginEv() #6 {
  %1 = call noalias noundef ptr @_ZN6memory8allocateEm(i64 noundef 80)
  call void @_ZN3smt17default_qm_pluginC2Ev(ptr noundef nonnull align 8 dereferenceable(73) %1)
  ret ptr %1
}

; Function Attrs: mustprogress uwtable
define hidden void @_ZN3smt18quantifier_managerC2ERNS_7contextER10smt_paramsRK10params_ref(ptr noundef nonnull align 8 dereferenceable(13) %0, ptr noundef nonnull align 8 dereferenceable(10544) %1, ptr noundef nonnull align 8 dereferenceable(808) %2, ptr noundef nonnull align 8 dereferenceable(8) %3) unnamed_addr #6 align 2 {
  %5 = alloca ptr, align 8
  %6 = alloca ptr, align 8
  %7 = alloca ptr, align 8
  %8 = alloca ptr, align 8
  store ptr %0, ptr %5, align 8, !tbaa !87
  store ptr %1, ptr %6, align 8, !tbaa !34
  store ptr %2, ptr %7, align 8, !tbaa !89
  store ptr %3, ptr %8, align 8, !tbaa !91
  %9 = load ptr, ptr %5, align 8
  %10 = call noalias noundef ptr @_ZN6memory8allocateEm(i64 noundef 1176)
  %11 = load ptr, ptr %6, align 8, !tbaa !34
  %12 = load ptr, ptr %7, align 8, !tbaa !89
  %13 = call noundef ptr @_ZN3smt17mk_default_pluginEv()
  call void @_ZN3smt18quantifier_manager3impC2ERS0_RNS_7contextER10smt_paramsPNS_25quantifier_manager_pluginE(ptr noundef nonnull align 8 dereferenceable(1172) %10, ptr noundef nonnull align 8 dereferenceable(13) %9, ptr noundef nonnull align 8 dereferenceable(10544) %11, ptr noundef nonnull align 8 dereferenceable(808) %12, ptr noundef %13)
  %14 = getelementptr inbounds nuw %"class.smt::quantifier_manager", ptr %9, i32 0, i32 0
  store ptr %10, ptr %14, align 8, !tbaa !93
  %15 = getelementptr inbounds nuw %"class.smt::quantifier_manager", ptr %9, i32 0, i32 0
  %16 = load ptr, ptr %15, align 8, !tbaa !93
  %17 = getelementptr inbounds nuw %"struct.smt::quantifier_manager::imp", ptr %16, i32 0, i32 7
  %18 = call noundef ptr @_ZNK10scoped_ptrIN3smt25quantifier_manager_pluginEEptEv(ptr noundef nonnull align 8 dereferenceable(8) %17)
  %19 = load ptr, ptr %18, align 8, !tbaa !71
  %20 = getelementptr inbounds ptr, ptr %19, i64 2
  %21 = load ptr, ptr %20, align 8
  call void %21(ptr noundef nonnull align 8 dereferenceable(8) %18, ptr noundef nonnull align 8 dereferenceable(13) %9)
  %22 = getelementptr inbounds nuw %"class.smt::quantifier_manager", ptr %9, i32 0, i32 1
  store i32 0, ptr %22, align 8, !tbaa !96
  %23 = getelementptr inbounds nuw %"class.smt::quantifier_manager", ptr %9, i32 0, i32 2
  store i8 1, ptr %23, align 4, !tbaa !97
  ret void
}