; Function Attrs: mustprogress uwtable
define hidden void @_ZN3smt18quantifier_managerC2ERNS_7contextER10smt_paramsRK10params_ref(ptr noundef nonnull align 8 dereferenceable(13) %0, ptr noundef nonnull align 8 dereferenceable(10544) %1, ptr noundef nonnull align 8 dereferenceable(808) %2, ptr nonnull readnone align 8 captures(none) %3) unnamed_addr #4 align 2 personality ptr @__gxx_personality_v0 {
  %5 = tail call noalias noundef ptr @_ZN6memory8allocateEm(i64 noundef 1176)
  %6 = tail call noalias noundef ptr @_ZN6memory8allocateEm(i64 noundef 80)
  store ptr getelementptr inbounds nuw inrange(-16, 168) (i8, ptr @_ZTVN3smt17default_qm_pluginE, i64 16), ptr %6, align 8, !tbaa !56
  %7 = getelementptr inbounds nuw i8, ptr %6, i64 8
  store ptr null, ptr %7, align 8, !tbaa !70
  %8 = getelementptr inbounds nuw i8, ptr %6, i64 24
  tail call void @llvm.memset.p0.i64(ptr noundef nonnull align 8 dereferenceable(49) %8, i8 0, i64 49, i1 false)
  tail call void @_ZN3smt18quantifier_manager3impC2ERS0_RNS_7contextER10smt_paramsPNS_25quantifier_manager_pluginE(ptr noundef nonnull align 8 dereferenceable(1172) %5, ptr noundef nonnull align 8 dereferenceable(13) %0, ptr noundef nonnull align 8 dereferenceable(10544) %1, ptr noundef nonnull align 8 dereferenceable(808) %2, ptr noundef nonnull %6)
  store ptr %5, ptr %0, align 8, !tbaa !82
  %9 = getelementptr inbounds nuw i8, ptr %5, i64 1160
  %10 = load ptr, ptr %9, align 8, !tbaa !85
  %11 = load ptr, ptr %10, align 8, !tbaa !56
  %12 = getelementptr inbounds nuw i8, ptr %11, i64 16
  %13 = load ptr, ptr %12, align 8
  tail call void %13(ptr noundef nonnull align 8 dereferenceable(8) %10, ptr noundef nonnull align 8 dereferenceable(13) %0)
  %14 = getelementptr inbounds nuw i8, ptr %0, i64 8
  store i32 0, ptr %14, align 8, !tbaa !88
  %15 = getelementptr inbounds nuw i8, ptr %0, i64 12
  store i8 1, ptr %15, align 4, !tbaa !89
  ret void
}